target datalayout = "e-m:e-p270:32:32-p271:32:32-p272:64:64-i64:64-i128:128-f80:128-n8:16:32:64-S128"
target triple = "x86_64-pc-linux-gnu"

%struct.tsi_handshaker = type { ptr, i8, i8, i8 }
%struct.tsi_handshaker_vtable = type { ptr, ptr, ptr, ptr, ptr, ptr, ptr, ptr }
%"class.std::__cxx11::basic_string" = type { %"struct.std::__cxx11::basic_string<char>::_Alloc_hider", i64, %union.anon }
%"struct.std::__cxx11::basic_string<char>::_Alloc_hider" = type { ptr }
%union.anon = type { i64, [8 x i8] }

@.str.18 = private unnamed_addr constant [17 x i8] c"invalid argument\00", align 1
@.str.19 = private unnamed_addr constant [37 x i8] c"handshaker already returned a result\00", align 1
@.str.20 = private unnamed_addr constant [20 x i8] c"handshaker shutdown\00", align 1
@.str.21 = private unnamed_addr constant [41 x i8] c"TSI handshaker does not implement next()\00", align 1

; Function Attrs: mustprogress nounwind uwtable
define linkonce_odr noundef i64 @_ZNSt11char_traitsIcE6lengthEPKc(ptr noundef %0) #4 comdat align 2 {
  %2 = alloca ptr, align 8
  store ptr %0, ptr %2, align 8, !tbaa !12
  %3 = load ptr, ptr %2, align 8, !tbaa !12
  %4 = call i64 @strlen(ptr noundef %3) #3
  ret i64 %4
}

; Function Attrs: mustprogress nounwind uwtable
define available_externally noundef i64 @_ZNKSt7__cxx1112basic_stringIcSt11char_traitsIcESaIcEE4sizeEv(ptr noundef nonnull align 8 dereferenceable(32) %0) #4 align 2 {
  %2 = alloca ptr, align 8
  store ptr %0, ptr %2, align 8, !tbaa !52
  %3 = load ptr, ptr %2, align 8
  %4 = getelementptr inbounds nuw %"class.std::__cxx11::basic_string", ptr %3, i32 0, i32 1
  %5 = load i64, ptr %4, align 8, !tbaa !83
  ret i64 %5
}

; Function Attrs: mustprogress uwtable
define available_externally noundef nonnull align 8 dereferenceable(32) ptr @_ZNSt7__cxx1112basic_stringIcSt11char_traitsIcESaIcEE6assignEPKc(ptr noundef nonnull align 8 dereferenceable(32) %0, ptr noundef %1) #5 align 2 {
  %3 = alloca ptr, align 8
  %4 = alloca ptr, align 8
  store ptr %0, ptr %3, align 8, !tbaa !52
  store ptr %1, ptr %4, align 8, !tbaa !12
  %5 = load ptr, ptr %3, align 8
  %6 = call noundef i64 @_ZNKSt7__cxx1112basic_stringIcSt11char_traitsIcESaIcEE4sizeEv(ptr noundef nonnull align 8 dereferenceable(32) %5) #3
  %7 = load ptr, ptr %4, align 8, !tbaa !12
  %8 = load ptr, ptr %4, align 8, !tbaa !12
  %9 = call noundef i64 @_ZNSt11char_traitsIcE6lengthEPKc(ptr noundef %8)
  %10 = call noundef nonnull align 8 dereferenceable(32) ptr @_ZNSt7__cxx1112basic_stringIcSt11char_traitsIcESaIcEE10_M_replaceEmmPKcm(ptr noundef nonnull align 8 dereferenceable(32) %5, i64 noundef 0, i64 noundef %6, ptr noundef %7, i64 noundef %9)
  ret ptr %10
}

; Function Attrs: mustprogress uwtable
define available_externally noundef nonnull align 8 dereferenceable(32) ptr @_ZNSt7__cxx1112basic_stringIcSt11char_traitsIcESaIcEEaSEPKc(ptr noundef nonnull align 8 dereferenceable(32) %0, ptr noundef %1) #5 align 2 {
  %3 = alloca ptr, align 8
  %4 = alloca ptr, align 8
  store ptr %0, ptr %3, align 8, !tbaa !52
  store ptr %1, ptr %4, align 8, !tbaa !12
  %5 = load ptr, ptr %3, align 8
  %6 = load ptr, ptr %4, align 8, !tbaa !12
  %7 = call noundef nonnull align 8 dereferenceable(32) ptr @_ZNSt7__cxx1112basic_stringIcSt11char_traitsIcESaIcEE6assignEPKc(ptr noundef nonnull align 8 dereferenceable(32) %5, ptr noundef %6)
  ret ptr %7
}

; Function Attrs: mustprogress uwtable
define noundef i32 @_Z19tsi_handshaker_nextP14tsi_handshakerPKhmPS2_PmPP21tsi_handshaker_resultPFv10tsi_resultPvS2_mS6_ES9_PNSt7__cxx1112basic_stringIcSt11char_traitsIcESaIcEEE(ptr noundef %0, ptr noundef %1, i64 noundef %2, ptr noundef %3, ptr noundef %4, ptr noundef %5, ptr noundef %6, ptr noundef %7, ptr noundef %8) #5 {
  %10 = alloca i32, align 4
  %11 = alloca ptr, align 8
  %12 = alloca ptr, align 8
  %13 = alloca i64, align 8
  %14 = alloca ptr, align 8
  %15 = alloca ptr, align 8
  %16 = alloca ptr, align 8
  %17 = alloca ptr, align 8
  %18 = alloca ptr, align 8
  %19 = alloca ptr, align 8
  store ptr %0, ptr %11, align 8, !tbaa !24
  store ptr %1, ptr %12, align 8, !tbaa !12
  store i64 %2, ptr %13, align 8, !tbaa !45
  store ptr %3, ptr %14, align 8, !tbaa !47
  store ptr %4, ptr %15, align 8, !tbaa !14
  store ptr %5, ptr %16, align 8, !tbaa !49
  store ptr %6, ptr %17, align 8, !tbaa !51
  store ptr %7, ptr %18, align 8, !tbaa !51
  store ptr %8, ptr %19, align 8, !tbaa !52
  %20 = load ptr, ptr %11, align 8, !tbaa !24
  %21 = icmp eq ptr %20, null
  br i1 %21, label %27, label %22

22:                                               ; preds = %9
  %23 = load ptr, ptr %11, align 8, !tbaa !24
  %24 = getelementptr inbounds nuw %struct.tsi_handshaker, ptr %23, i32 0, i32 0
  %25 = load ptr, ptr %24, align 8, !tbaa !26
  %26 = icmp eq ptr %25, null
  br i1 %26, label %27, label %34

27:                                               ; preds = %22, %9
  %28 = load ptr, ptr %19, align 8, !tbaa !52
  %29 = icmp ne ptr %28, null
  br i1 %29, label %30, label %33

30:                                               ; preds = %27
  %31 = load ptr, ptr %19, align 8, !tbaa !52
  %32 = call noundef nonnull align 8 dereferenceable(32) ptr @_ZNSt7__cxx1112basic_stringIcSt11char_traitsIcESaIcEEaSEPKc(ptr noundef nonnull align 8 dereferenceable(32) %31, ptr noundef @.str.18)
  br label %33

33:                                               ; preds = %30, %27
  store i32 2, ptr %10, align 4
  br label %88

34:                                               ; preds = %22
  %35 = load ptr, ptr %11, align 8, !tbaa !24
  %36 = getelementptr inbounds nuw %struct.tsi_handshaker, ptr %35, i32 0, i32 2
  %37 = load i8, ptr %36, align 1, !tbaa !54, !range !31, !noundef !32
  %38 = trunc i8 %37 to i1
  br i1 %38, label %39, label %46

39:                                               ; preds = %34
  %40 = load ptr, ptr %19, align 8, !tbaa !52
  %41 = icmp ne ptr %40, null
  br i1 %41, label %42, label %45

42:                                               ; preds = %39
  %43 = load ptr, ptr %19, align 8, !tbaa !52
  %44 = call noundef nonnull align 8 dereferenceable(32) ptr @_ZNSt7__cxx1112basic_stringIcSt11char_traitsIcESaIcEEaSEPKc(ptr noundef nonnull align 8 dereferenceable(32) %43, ptr noundef @.str.19)
  br label %45

45:                                               ; preds = %42, %39
  store i32 5, ptr %10, align 4
  br label %88

46:                                               ; preds = %34
  %47 = load ptr, ptr %11, align 8, !tbaa !24
  %48 = getelementptr inbounds nuw %struct.tsi_handshaker, ptr %47, i32 0, i32 3
  %49 = load i8, ptr %48, align 2, !tbaa !33, !range !31, !noundef !32
  %50 = trunc i8 %49 to i1
  br i1 %50, label %51, label %58

51:                                               ; preds = %46
  %52 = load ptr, ptr %19, align 8, !tbaa !52
  %53 = icmp ne ptr %52, null
  br i1 %53, label %54, label %57

54:                                               ; preds = %51
  %55 = load ptr, ptr %19, align 8, !tbaa !52
  %56 = call noundef nonnull align 8 dereferenceable(32) ptr @_ZNSt7__cxx1112basic_stringIcSt11char_traitsIcESaIcEEaSEPKc(ptr noundef nonnull align 8 dereferenceable(32) %55, ptr noundef @.str.20)
  br label %57

57:                                               ; preds = %54, %51
  store i32 14, ptr %10, align 4
  br label %88

58:                                               ; preds = %46
  %59 = load ptr, ptr %11, align 8, !tbaa !24
  %60 = getelementptr inbounds nuw %struct.tsi_handshaker, ptr %59, i32 0, i32 0
  %61 = load ptr, ptr %60, align 8, !tbaa !26
  %62 = getelementptr inbounds nuw %struct.tsi_handshaker_vtable, ptr %61, i32 0, i32 6
  %63 = load ptr, ptr %62, align 8, !tbaa !55
  %64 = icmp eq ptr %63, null
  br i1 %64, label %65, label %72

65:                                               ; preds = %58
  %66 = load ptr, ptr %19, align 8, !tbaa !52
  %67 = icmp ne ptr %66, null
  br i1 %67, label %68, label %71

68:                                               ; preds = %65
  %69 = load ptr, ptr %19, align 8, !tbaa !52
  %70 = call noundef nonnull align 8 dereferenceable(32) ptr @_ZNSt7__cxx1112basic_stringIcSt11char_traitsIcESaIcEEaSEPKc(ptr noundef nonnull align 8 dereferenceable(32) %69, ptr noundef @.str.21)
  br label %71

71:                                               ; preds = %68, %65
  store i32 6, ptr %10, align 4
  br label %88

72:                                               ; preds = %58
  %73 = load ptr, ptr %11, align 8, !tbaa !24
  %74 = getelementptr inbounds nuw %struct.tsi_handshaker, ptr %73, i32 0, i32 0
  %75 = load ptr, ptr %74, align 8, !tbaa !26
  %76 = getelementptr inbounds nuw %struct.tsi_handshaker_vtable, ptr %75, i32 0, i32 6
  %77 = load ptr, ptr %76, align 8, !tbaa !55
  %78 = load ptr, ptr %11, align 8, !tbaa !24
  %79 = load ptr, ptr %12, align 8, !tbaa !12
  %80 = load i64, ptr %13, align 8, !tbaa !45
  %81 = load ptr, ptr %14, align 8, !tbaa !47
  %82 = load ptr, ptr %15, align 8, !tbaa !14
  %83 = load ptr, ptr %16, align 8, !tbaa !49
  %84 = load ptr, ptr %17, align 8, !tbaa !51
  %85 = load ptr, ptr %18, align 8, !tbaa !51
  %86 = load ptr, ptr %19, align 8, !tbaa !52
  %87 = call noundef i32 %77(ptr noundef %78, ptr noundef %79, i64 noundef %80, ptr noundef %81, ptr noundef %82, ptr noundef %83, ptr noundef %84, ptr noundef %85, ptr noundef %86)
  store i32 %87, ptr %10, align 4
  br label %88

88:                                               ; preds = %72, %71, %57, %45, %33
  %89 = load i32, ptr %10, align 4
  ret i32 %89
}