; Function Attrs: mustprogress uwtable
define noundef i32 @_Z19tsi_handshaker_nextP14tsi_handshakerPKhmPS2_PmPP21tsi_handshaker_resultPFv10tsi_resultPvS2_mS6_ES9_PNSt7__cxx1112basic_stringIcSt11char_traitsIcESaIcEEE(ptr noundef %0, ptr noundef %1, i64 noundef %2, ptr noundef %3, ptr noundef %4, ptr noundef %5, ptr noundef %6, ptr noundef %7, ptr noundef %8) local_unnamed_addr #4 {
  %10 = icmp eq ptr %0, null
  br i1 %10, label %14, label %11

11:                                               ; preds = %9
  %12 = load ptr, ptr %0, align 8, !tbaa !14
  %13 = icmp eq ptr %12, null
  br i1 %13, label %14, label %19

14:                                               ; preds = %11, %9
  %.not29 = icmp eq ptr %8, null
  br i1 %.not29, label %48, label %15

15:                                               ; preds = %14
  %16 = getelementptr inbounds nuw i8, ptr %8, i64 8
  %17 = load i64, ptr %16, align 8, !tbaa !28
  %18 = tail call noundef nonnull align 8 dereferenceable(32) ptr @_ZNSt7__cxx1112basic_stringIcSt11char_traitsIcESaIcEE10_M_replaceEmmPKcm(ptr noundef nonnull align 8 dereferenceable(32) %8, i64 noundef 0, i64 noundef %17, ptr noundef nonnull @.str.18, i64 noundef 16)
  br label %48

19:                                               ; preds = %11
  %20 = getelementptr inbounds nuw i8, ptr %0, i64 9
  %21 = load i8, ptr %20, align 1, !tbaa !33, !range !19, !noundef !20
  %22 = trunc nuw i8 %21 to i1
  br i1 %22, label %23, label %28

23:                                               ; preds = %19
  %.not28 = icmp eq ptr %8, null
  br i1 %.not28, label %48, label %24

24:                                               ; preds = %23
  %25 = getelementptr inbounds nuw i8, ptr %8, i64 8
  %26 = load i64, ptr %25, align 8, !tbaa !28
  %27 = tail call noundef nonnull align 8 dereferenceable(32) ptr @_ZNSt7__cxx1112basic_stringIcSt11char_traitsIcESaIcEE10_M_replaceEmmPKcm(ptr noundef nonnull align 8 dereferenceable(32) %8, i64 noundef 0, i64 noundef %26, ptr noundef nonnull @.str.19, i64 noundef 36)
  br label %48

28:                                               ; preds = %19
  %29 = getelementptr inbounds nuw i8, ptr %0, i64 10
  %30 = load i8, ptr %29, align 2, !tbaa !21, !range !19, !noundef !20
  %31 = trunc nuw i8 %30 to i1
  br i1 %31, label %32, label %37

32:                                               ; preds = %28
  %.not27 = icmp eq ptr %8, null
  br i1 %.not27, label %48, label %33

33:                                               ; preds = %32
  %34 = getelementptr inbounds nuw i8, ptr %8, i64 8
  %35 = load i64, ptr %34, align 8, !tbaa !28
  %36 = tail call noundef nonnull align 8 dereferenceable(32) ptr @_ZNSt7__cxx1112basic_stringIcSt11char_traitsIcESaIcEE10_M_replaceEmmPKcm(ptr noundef nonnull align 8 dereferenceable(32) %8, i64 noundef 0, i64 noundef %35, ptr noundef nonnull @.str.20, i64 noundef 19)
  br label %48

37:                                               ; preds = %28
  %38 = getelementptr inbounds nuw i8, ptr %12, i64 48
  %39 = load ptr, ptr %38, align 8, !tbaa !34
  %40 = icmp eq ptr %39, null
  br i1 %40, label %41, label %46

41:                                               ; preds = %37
  %.not = icmp eq ptr %8, null
  br i1 %.not, label %48, label %42

42:                                               ; preds = %41
  %43 = getelementptr inbounds nuw i8, ptr %8, i64 8
  %44 = load i64, ptr %43, align 8, !tbaa !28
  %45 = tail call noundef nonnull align 8 dereferenceable(32) ptr @_ZNSt7__cxx1112basic_stringIcSt11char_traitsIcESaIcEE10_M_replaceEmmPKcm(ptr noundef nonnull align 8 dereferenceable(32) %8, i64 noundef 0, i64 noundef %44, ptr noundef nonnull @.str.21, i64 noundef 40)
  br label %48

46:                                               ; preds = %37
  %47 = tail call noundef i32 %39(ptr noundef nonnull %0, ptr noundef %1, i64 noundef %2, ptr noundef %3, ptr noundef %4, ptr noundef %5, ptr noundef %6, ptr noundef %7, ptr noundef %8)
  br label %48

48:                                               ; preds = %41, %42, %32, %33, %23, %24, %14, %15, %46
  %.0 = phi i32 [ %47, %46 ], [ 2, %15 ], [ 2, %14 ], [ 5, %24 ], [ 5, %23 ], [ 14, %33 ], [ 14, %32 ], [ 6, %42 ], [ 6, %41 ]
  ret i32 %.0
}